; Function Attrs: mustprogress nounwind uwtable
define dso_local void @_ZN5ImageD2Ev(ptr noundef nonnull align 8 dereferenceable(64) %0) unnamed_addr #9 align 2 personality ptr @__gxx_personality_v0 {
  %2 = getelementptr inbounds nuw i8, ptr %0, i64 16
  %3 = getelementptr inbounds nuw i8, ptr %0, i64 40
  %4 = load ptr, ptr %3, align 8, !tbaa !18
  %5 = getelementptr inbounds nuw i8, ptr %0, i64 24
  %.not4 = icmp eq ptr %4, %5
  br i1 %.not4, label %._crit_edge, label %.lr.ph

._crit_edge:                                      ; preds = %18, %1
  %6 = getelementptr inbounds nuw i8, ptr %0, i64 32
  %7 = load ptr, ptr %6, align 8, !tbaa !17
  invoke void @_ZNSt8_Rb_treeINSt7__cxx1112basic_stringIcSt11char_traitsIcESaIcEEESt4pairIKS5_P12ImageChannelESt10_Select1stISA_ESt4lessIS5_ESaISA_EE8_M_eraseEPSt13_Rb_tree_nodeISA_E(ptr noundef nonnull align 8 dereferenceable(48) %2, ptr noundef %7)
          to label %_ZNSt3mapINSt7__cxx1112basic_stringIcSt11char_traitsIcESaIcEEEP12ImageChannelSt4lessIS5_ESaISt4pairIKS5_S7_EEED2Ev.exit unwind label %8

8:                                                ; preds = %._crit_edge
  %9 = landingpad { ptr, i32 }
          catch ptr null
  %10 = extractvalue { ptr, i32 } %9, 0
  tail call void @__clang_call_terminate(ptr %10) #24
  unreachable

_ZNSt3mapINSt7__cxx1112basic_stringIcSt11char_traitsIcESaIcEEEP12ImageChannelSt4lessIS5_ESaISt4pairIKS5_S7_EEED2Ev.exit: ; preds = %._crit_edge
  ret void

.lr.ph:                                           ; preds = %1, %18
  %.sroa.01.05 = phi ptr [ %19, %18 ], [ %4, %1 ]
  %11 = getelementptr inbounds nuw i8, ptr %.sroa.01.05, i64 64
  %12 = load ptr, ptr %11, align 8, !tbaa !25
  %13 = icmp eq ptr %12, null
  br i1 %13, label %18, label %14

14:                                               ; preds = %.lr.ph
  %15 = load ptr, ptr %12, align 8, !tbaa !4
  %16 = getelementptr inbounds nuw i8, ptr %15, i64 8
  %17 = load ptr, ptr %16, align 8
  tail call void %17(ptr noundef nonnull align 8 dereferenceable(16) %12) #25
  br label %18

18:                                               ; preds = %.lr.ph, %14
  %19 = tail call noundef ptr @_ZSt18_Rb_tree_incrementPSt18_Rb_tree_node_base(ptr noundef nonnull %.sroa.01.05) #26
  %.not = icmp eq ptr %19, %5
  br i1 %.not, label %._crit_edge, label %.lr.ph, !llvm.loop !31
}